; ModuleID = 'source-C-CXX/45/1682.cpp'
source_filename = "source-C-CXX/45/1682.cpp"
target datalayout = "e-m:e-p270:32:32-p271:32:32-p272:64:64-i64:64-f80:128-n8:16:32:64-S128"
target triple = "x86_64-pc-linux-gnu"

%"class.std::ios_base::Init" = type { i8 }
%"class.std::basic_istream" = type { i32 (...)**, i64, %"class.std::basic_ios" }
%"class.std::basic_ios" = type { %"class.std::ios_base", %"class.std::basic_ostream"*, i8, i8, %"class.std::basic_streambuf"*, %"class.std::ctype"*, %"class.std::num_put"*, %"class.std::num_get"* }
%"class.std::ios_base" = type { i32 (...)**, i64, i64, i32, i32, i32, %"struct.std::ios_base::_Callback_list"*, %"struct.std::ios_base::_Words", [8 x %"struct.std::ios_base::_Words"], i32, %"struct.std::ios_base::_Words"*, %"class.std::locale" }
%"struct.std::ios_base::_Callback_list" = type { %"struct.std::ios_base::_Callback_list"*, void (i32, %"class.std::ios_base"*, i32)*, i32, i32 }
%"struct.std::ios_base::_Words" = type { i8*, i64 }
%"class.std::locale" = type { %"class.std::locale::_Impl"* }
%"class.std::locale::_Impl" = type { i32, %"class.std::locale::facet"**, i64, %"class.std::locale::facet"**, i8** }
%"class.std::locale::facet" = type <{ i32 (...)**, i32, [4 x i8] }>
%"class.std::basic_ostream" = type { i32 (...)**, %"class.std::basic_ios" }
%"class.std::basic_streambuf" = type { i32 (...)**, i8*, i8*, i8*, i8*, i8*, i8*, %"class.std::locale" }
%"class.std::ctype" = type <{ %"class.std::locale::facet.base", [4 x i8], %struct.__locale_struct*, i8, [7 x i8], i32*, i32*, i16*, i8, [256 x i8], [256 x i8], i8, [6 x i8] }>
%"class.std::locale::facet.base" = type <{ i32 (...)**, i32 }>
%struct.__locale_struct = type { [13 x %struct.__locale_data*], i16*, i32*, i32*, [13 x i8*] }
%struct.__locale_data = type opaque
%"class.std::num_put" = type { %"class.std::locale::facet.base", [4 x i8] }
%"class.std::num_get" = type { %"class.std::locale::facet.base", [4 x i8] }

@_ZStL8__ioinit = internal global %"class.std::ios_base::Init" zeroinitializer, align 1
@__dso_handle = external hidden global i8
@array = dso_local global [100 x [100 x i32]] zeroinitializer, align 16
@_ZSt3cin = external global %"class.std::basic_istream", align 8
@_ZSt4cout = external global %"class.std::basic_ostream", align 8
@llvm.global_ctors = appending global [1 x { i32, void ()*, i8* }] [{ i32, void ()*, i8* } { i32 65535, void ()* @_GLOBAL__sub_I_1682.cpp, i8* null }]

declare void @_ZNSt8ios_base4InitC1Ev(%"class.std::ios_base::Init"* nonnull align 1 dereferenceable(1)) unnamed_addr #0

; Function Attrs: nounwind
declare void @_ZNSt8ios_base4InitD1Ev(%"class.std::ios_base::Init"* nonnull align 1 dereferenceable(1)) unnamed_addr #1

; Function Attrs: nofree nounwind
declare i32 @__cxa_atexit(void (i8*)*, i8*, i8*) local_unnamed_addr #2

; Function Attrs: mustprogress norecurse sspstrong uwtable
define dso_local i32 @main() local_unnamed_addr #3 {
  %1 = alloca i32, align 4
  %2 = alloca i32, align 4
  %3 = bitcast i32* %1 to i8*
  call void @llvm.lifetime.start.p0i8(i64 4, i8* nonnull %3) #7
  %4 = bitcast i32* %2 to i8*
  call void @llvm.lifetime.start.p0i8(i64 4, i8* nonnull %4) #7
  %5 = call nonnull align 8 dereferenceable(16) %"class.std::basic_istream"* @_ZNSirsERi(%"class.std::basic_istream"* nonnull align 8 dereferenceable(16) @_ZSt3cin, i32* nonnull align 4 dereferenceable(4) %1)
  %6 = call nonnull align 8 dereferenceable(16) %"class.std::basic_istream"* @_ZNSirsERi(%"class.std::basic_istream"* nonnull align 8 dereferenceable(16) %5, i32* nonnull align 4 dereferenceable(4) %2)
  %7 = load i32, i32* %1, align 4, !tbaa !5
  %8 = icmp slt i32 %7, 1
  %9 = load i32, i32* %2, align 4, !tbaa !5
  %10 = icmp slt i32 %9, 1
  %11 = select i1 %8, i1 true, i1 %10
  br i1 %11, label %33, label %12

12:                                               ; preds = %0, %27
  %13 = phi i32 [ %28, %27 ], [ %7, %0 ]
  %14 = phi i32 [ %29, %27 ], [ %9, %0 ]
  %15 = phi i64 [ %30, %27 ], [ 1, %0 ]
  %16 = icmp slt i32 %14, 1
  br i1 %16, label %27, label %17

17:                                               ; preds = %12, %17
  %18 = phi i64 [ %21, %17 ], [ 1, %12 ]
  %19 = getelementptr inbounds [100 x [100 x i32]], [100 x [100 x i32]]* @array, i64 0, i64 %15, i64 %18
  %20 = call nonnull align 8 dereferenceable(16) %"class.std::basic_istream"* @_ZNSirsERi(%"class.std::basic_istream"* nonnull align 8 dereferenceable(16) @_ZSt3cin, i32* nonnull align 4 dereferenceable(4) %19)
  %21 = add nuw nsw i64 %18, 1
  %22 = load i32, i32* %2, align 4, !tbaa !5
  %23 = sext i32 %22 to i64
  %24 = icmp slt i64 %18, %23
  br i1 %24, label %17, label %25, !llvm.loop !9

25:                                               ; preds = %17
  %26 = load i32, i32* %1, align 4, !tbaa !5
  br label %27

27:                                               ; preds = %25, %12
  %28 = phi i32 [ %26, %25 ], [ %13, %12 ]
  %29 = phi i32 [ %22, %25 ], [ %14, %12 ]
  %30 = add nuw nsw i64 %15, 1
  %31 = sext i32 %28 to i64
  %32 = icmp slt i64 %15, %31
  br i1 %32, label %12, label %33, !llvm.loop !11

33:                                               ; preds = %27, %0
  %34 = phi i32 [ %9, %0 ], [ %29, %27 ]
  %35 = phi i32 [ %7, %0 ], [ %28, %27 ]
  %36 = mul i32 %34, %35
  %37 = icmp slt i32 %36, 1
  br i1 %37, label %117, label %38

38:                                               ; preds = %33, %111
  %39 = phi i32 [ %114, %111 ], [ 0, %33 ]
  %40 = phi i32 [ %113, %111 ], [ 1, %33 ]
  %41 = phi i32 [ %115, %111 ], [ 1, %33 ]
  %42 = phi i32 [ %112, %111 ], [ 1, %33 ]
  %43 = add nsw i32 %39, 1
  %44 = sext i32 %40 to i64
  %45 = sext i32 %42 to i64
  %46 = getelementptr inbounds [100 x [100 x i32]], [100 x [100 x i32]]* @array, i64 0, i64 %44, i64 %45
  %47 = load i32, i32* %46, align 4, !tbaa !5
  %48 = call nonnull align 8 dereferenceable(8) %"class.std::basic_ostream"* @_ZNSolsEi(%"class.std::basic_ostream"* nonnull align 8 dereferenceable(8) @_ZSt4cout, i32 %47)
  %49 = bitcast %"class.std::basic_ostream"* %48 to i8**
  %50 = load i8*, i8** %49, align 8, !tbaa !13
  %51 = getelementptr i8, i8* %50, i64 -24
  %52 = bitcast i8* %51 to i64*
  %53 = load i64, i64* %52, align 8
  %54 = bitcast %"class.std::basic_ostream"* %48 to i8*
  %55 = add nsw i64 %53, 240
  %56 = getelementptr inbounds i8, i8* %54, i64 %55
  %57 = bitcast i8* %56 to %"class.std::ctype"**
  %58 = load %"class.std::ctype"*, %"class.std::ctype"** %57, align 8, !tbaa !15
  %59 = icmp eq %"class.std::ctype"* %58, null
  br i1 %59, label %60, label %61

60:                                               ; preds = %38
  call void @_ZSt16__throw_bad_castv() #8
  unreachable

61:                                               ; preds = %38
  %62 = getelementptr inbounds %"class.std::ctype", %"class.std::ctype"* %58, i64 0, i32 8
  %63 = load i8, i8* %62, align 8, !tbaa !19
  %64 = icmp eq i8 %63, 0
  br i1 %64, label %68, label %65

65:                                               ; preds = %61
  %66 = getelementptr inbounds %"class.std::ctype", %"class.std::ctype"* %58, i64 0, i32 9, i64 10
  %67 = load i8, i8* %66, align 1, !tbaa !21
  br label %74

68:                                               ; preds = %61
  call void @_ZNKSt5ctypeIcE13_M_widen_initEv(%"class.std::ctype"* nonnull align 8 dereferenceable(570) %58)
  %69 = bitcast %"class.std::ctype"* %58 to i8 (%"class.std::ctype"*, i8)***
  %70 = load i8 (%"class.std::ctype"*, i8)**, i8 (%"class.std::ctype"*, i8)*** %69, align 8, !tbaa !13
  %71 = getelementptr inbounds i8 (%"class.std::ctype"*, i8)*, i8 (%"class.std::ctype"*, i8)** %70, i64 6
  %72 = load i8 (%"class.std::ctype"*, i8)*, i8 (%"class.std::ctype"*, i8)** %71, align 8
  %73 = call signext i8 %72(%"class.std::ctype"* nonnull align 8 dereferenceable(570) %58, i8 signext 10)
  br label %74

74:                                               ; preds = %65, %68
  %75 = phi i8 [ %67, %65 ], [ %73, %68 ]
  %76 = call nonnull align 8 dereferenceable(8) %"class.std::basic_ostream"* @_ZNSo3putEc(%"class.std::basic_ostream"* nonnull align 8 dereferenceable(8) %48, i8 signext %75)
  %77 = call nonnull align 8 dereferenceable(8) %"class.std::basic_ostream"* @_ZNSo5flushEv(%"class.std::basic_ostream"* nonnull align 8 dereferenceable(8) %76)
  %78 = load i32, i32* %2, align 4, !tbaa !5
  %79 = icmp slt i32 %43, %78
  br i1 %79, label %80, label %82

80:                                               ; preds = %74
  %81 = add nsw i32 %42, 1
  br label %111

82:                                               ; preds = %74
  %83 = icmp eq i32 %43, %78
  br i1 %83, label %89, label %84

84:                                               ; preds = %82
  %85 = load i32, i32* %1, align 4, !tbaa !5
  %86 = add nsw i32 %85, %78
  %87 = add nsw i32 %86, -1
  %88 = icmp slt i32 %43, %87
  br i1 %88, label %89, label %91

89:                                               ; preds = %84, %82
  %90 = add nsw i32 %40, 1
  br label %111

91:                                               ; preds = %84
  %92 = icmp eq i32 %43, %87
  br i1 %92, label %98, label %93

93:                                               ; preds = %91
  %94 = shl nsw i32 %78, 1
  %95 = add i32 %85, -2
  %96 = add i32 %95, %94
  %97 = icmp slt i32 %43, %96
  br i1 %97, label %98, label %100

98:                                               ; preds = %93, %91
  %99 = add nsw i32 %42, -1
  br label %111

100:                                              ; preds = %93
  %101 = icmp eq i32 %43, %96
  br i1 %101, label %106, label %102

102:                                              ; preds = %100
  %103 = shl nsw i32 %86, 1
  %104 = add nsw i32 %103, -4
  %105 = icmp slt i32 %43, %104
  br i1 %105, label %106, label %108

106:                                              ; preds = %102, %100
  %107 = add nsw i32 %40, -1
  br label %111

108:                                              ; preds = %102
  %109 = add nsw i32 %42, 1
  store i32 %95, i32* %1, align 4, !tbaa !5
  %110 = add nsw i32 %78, -2
  store i32 %110, i32* %2, align 4, !tbaa !5
  br label %111

111:                                              ; preds = %80, %98, %108, %106, %89
  %112 = phi i32 [ %81, %80 ], [ %42, %89 ], [ %99, %98 ], [ %42, %106 ], [ %109, %108 ]
  %113 = phi i32 [ %40, %80 ], [ %90, %89 ], [ %40, %98 ], [ %107, %106 ], [ %40, %108 ]
  %114 = phi i32 [ %43, %80 ], [ %43, %89 ], [ %43, %98 ], [ %43, %106 ], [ 0, %108 ]
  %115 = add nuw i32 %41, 1
  %116 = icmp eq i32 %41, %36
  br i1 %116, label %117, label %38, !llvm.loop !22

117:                                              ; preds = %111, %33
  call void @llvm.lifetime.end.p0i8(i64 4, i8* nonnull %4) #7
  call void @llvm.lifetime.end.p0i8(i64 4, i8* nonnull %3) #7
  ret i32 0
}

; Function Attrs: argmemonly mustprogress nofree nosync nounwind willreturn
declare void @llvm.lifetime.start.p0i8(i64 immarg, i8* nocapture) #4

declare nonnull align 8 dereferenceable(16) %"class.std::basic_istream"* @_ZNSirsERi(%"class.std::basic_istream"* nonnull align 8 dereferenceable(16), i32* nonnull align 4 dereferenceable(4)) local_unnamed_addr #0

declare nonnull align 8 dereferenceable(8) %"class.std::basic_ostream"* @_ZNSolsEi(%"class.std::basic_ostream"* nonnull align 8 dereferenceable(8), i32) local_unnamed_addr #0

; Function Attrs: argmemonly mustprogress nofree nosync nounwind willreturn
declare void @llvm.lifetime.end.p0i8(i64 immarg, i8* nocapture) #4

declare nonnull align 8 dereferenceable(8) %"class.std::basic_ostream"* @_ZNSo3putEc(%"class.std::basic_ostream"* nonnull align 8 dereferenceable(8), i8 signext) local_unnamed_addr #0

declare nonnull align 8 dereferenceable(8) %"class.std::basic_ostream"* @_ZNSo5flushEv(%"class.std::basic_ostream"* nonnull align 8 dereferenceable(8)) local_unnamed_addr #0

; Function Attrs: noreturn
declare void @_ZSt16__throw_bad_castv() local_unnamed_addr #5

declare void @_ZNKSt5ctypeIcE13_M_widen_initEv(%"class.std::ctype"* nonnull align 8 dereferenceable(570)) local_unnamed_addr #0

; Function Attrs: sspstrong uwtable
define internal void @_GLOBAL__sub_I_1682.cpp() #6 section ".text.startup" {
  tail call void @_ZNSt8ios_base4InitC1Ev(%"class.std::ios_base::Init"* nonnull align 1 dereferenceable(1) @_ZStL8__ioinit)
  %1 = tail call i32 @__cxa_atexit(void (i8*)* bitcast (void (%"class.std::ios_base::Init"*)* @_ZNSt8ios_base4InitD1Ev to void (i8*)*), i8* getelementptr inbounds (%"class.std::ios_base::Init", %"class.std::ios_base::Init"* @_ZStL8__ioinit, i64 0, i32 0), i8* nonnull @__dso_handle) #7
  ret void
}


!llvm.module.flags = !{!0, !1, !2, !3}
!llvm.ident = !{!4}

!0 = !{i32 1, !"wchar_size", i32 4}
!1 = !{i32 7, !"PIC Level", i32 2}
!2 = !{i32 7, !"PIE Level", i32 2}
!3 = !{i32 7, !"uwtable", i32 1}
!4 = !{!"clang version 13.0.0"}
!5 = !{!6, !6, i64 0}
!6 = !{!"int", !7, i64 0}
!7 = !{!"omnipotent char", !8, i64 0}
!8 = !{!"Simple C++ TBAA"}
!9 = distinct !{!9, !10}
!10 = !{!"llvm.loop.mustprogress"}
!11 = distinct !{!11, !10, !12}
!12 = !{!"llvm.loop.unswitch.partial.disable"}
!13 = !{!14, !14, i64 0}
!14 = !{!"vtable pointer", !8, i64 0}
!15 = !{!16, !17, i64 240}
!16 = !{!"_ZTSSt9basic_iosIcSt11char_traitsIcEE", !17, i64 216, !7, i64 224, !18, i64 225, !17, i64 232, !17, i64 240, !17, i64 248, !17, i64 256}
!17 = !{!"any pointer", !7, i64 0}
!18 = !{!"bool", !7, i64 0}
!19 = !{!20, !7, i64 56}
!20 = !{!"_ZTSSt5ctypeIcE", !17, i64 16, !18, i64 24, !17, i64 32, !17, i64 40, !17, i64 48, !7, i64 56, !7, i64 57, !7, i64 313, !7, i64 569}
!21 = !{!7, !7, i64 0}
!22 = distinct !{!22, !10}
